; Function Attrs: uwtable
define void @_ZThn320_N12colvarmodule10atom_group23do_feature_side_effectsEi(ptr noundef %0, i32 noundef %1) unnamed_addr #4 align 2 {
  %3 = alloca %"class.colvarmodule::rvector", align 8
  %4 = getelementptr inbounds i8, ptr %0, i64 -320
  call void @llvm.lifetime.start.p0(i64 24, ptr nonnull %3)
  %cond.i = icmp eq i32 %1, 6
  br i1 %cond.i, label %5, label %_ZN12colvarmodule10atom_group23do_feature_side_effectsEi.exit

5:                                                ; preds = %2
  %6 = getelementptr inbounds i8, ptr %0, i64 48
  %7 = load ptr, ptr %6, align 8
  %8 = getelementptr inbounds i8, ptr %7, i64 33
  %9 = load i8, ptr %8, align 1
  %10 = trunc i8 %9 to i1
  br i1 %10, label %15, label %11

11:                                               ; preds = %5
  %12 = getelementptr inbounds i8, ptr %7, i64 97
  %13 = load i8, ptr %12, align 1
  %14 = trunc i8 %13 to i1
  br i1 %14, label %15, label %_ZN12colvarmodule10atom_group23do_feature_side_effectsEi.exit

15:                                               ; preds = %11, %5
  %16 = getelementptr inbounds i8, ptr %0, i64 944
  %17 = load ptr, ptr %16, align 8
  %.not.i = icmp eq ptr %17, null
  %spec.select.i = select i1 %.not.i, ptr %4, ptr %17
  %18 = getelementptr inbounds i8, ptr %spec.select.i, i64 1416
  %19 = getelementptr inbounds i8, ptr %spec.select.i, i64 504
  %20 = getelementptr inbounds i8, ptr %spec.select.i, i64 512
  %21 = load ptr, ptr %20, align 8
  %22 = load ptr, ptr %19, align 8
  %23 = ptrtoint ptr %21 to i64
  %24 = ptrtoint ptr %22 to i64
  %25 = sub i64 %23, %24
  %26 = sdiv exact i64 %25, 120
  call void @llvm.memset.p0.i64(ptr noundef nonnull align 8 dereferenceable(24) %3, i8 0, i64 24, i1 false)
  call void @_ZNSt6vectorIN12colvarmodule7rvectorESaIS1_EE14_M_fill_assignEmRKS1_(ptr noundef nonnull align 8 dereferenceable(24) %18, i64 noundef %26, ptr noundef nonnull align 8 dereferenceable(24) %3)
  br label %_ZN12colvarmodule10atom_group23do_feature_side_effectsEi.exit

_ZN12colvarmodule10atom_group23do_feature_side_effectsEi.exit: ; preds = %2, %11, %15
  call void @llvm.lifetime.end.p0(i64 24, ptr nonnull %3)
  ret void
}